Certificate:
    Data:
        Version: 3 (0x2)
        Serial Number:
            82:3b:cc:ea:61:5f:95:d0:df:93:2d:5b:33:75:32:e7
    Signature Algorithm: sha256WithRSAEncryption
        Issuer: CN=Easy-RSA CA
        Validity
            Not Before: Apr 24 18:00:18 2026 GMT
            Not After : Jul 27 18:00:18 2028 GMT
        Subject: CN=client1.domain.tld
        Subject Public Key Info:
            Public Key Algorithm: rsaEncryption
                RSA Public-Key: (2048 bit)
                Modulus:
                    00:b3:55:82:f6:9f:7e:84:6b:95:1e:a7:0d:e7:76:
                    a4:5c:63:ad:1c:15:fb:c3:30:5e:66:70:87:1d:32:
                    9f:15:93:d0:02:c5:21:73:aa:d1:f5:b3:12:df:34:
                    62:aa:d4:18:a4:bd:87:5e:2c:2c:93:8b:86:2b:76:
                    6f:33:ef:2b:67:9b:60:3f:dd:fb:74:1c:0f:5d:a9:
                    0b:0f:f5:78:50:8f:ab:a9:49:ff:4d:7f:e0:d5:e9:
                    25:a6:75:a0:50:99:a8:f3:7e:c6:ba:c4:d4:db:38:
                    4d:6e:05:a9:5f:37:a0:18:9c:22:3d:c4:fa:6a:06:
                    df:55:d3:21:5b:b1:f7:b8:af:06:8e:61:e0:8d:4c:
                    32:59:90:55:a7:e7:58:5a:82:74:2f:a5:ca:0c:b5:
                    2f:5d:d5:95:8e:5f:45:59:4b:be:af:6b:cc:18:59:
                    e6:ab:25:68:42:2a:5d:55:7d:82:5c:80:f8:d7:b5:
                    e6:4a:e9:11:8c:30:0c:fd:66:a6:98:71:f4:9e:f2:
                    a6:6a:8e:92:e2:dc:3f:64:da:e9:5f:74:f9:a5:d7:
                    61:fa:51:6d:0b:83:f6:99:d6:50:67:2b:d3:eb:cd:
                    01:84:76:c8:65:cd:ef:1e:f6:c0:3f:96:94:9d:d4:
                    fa:63:07:ec:39:24:61:3b:79:01:f8:03:ea:cd:a7:
                    74:a3
                Exponent: 65537 (0x10001)
        X509v3 extensions:
            X509v3 Basic Constraints: 
                CA:FALSE
            X509v3 Subject Key Identifier: 
                4E:EC:9C:F6:F8:01:39:12:FF:D0:C3:DC:13:9F:30:C1:65:22:05:FE
            X509v3 Authority Key Identifier: 
                keyid:26:E1:6B:54:53:29:E1:D6:F6:B6:7B:33:4F:F5:06:4C:91:78:33:A7
                DirName:/CN=Easy-RSA CA
                serial:97:8D:AC:DC:69:87:B8:73

            X509v3 Extended Key Usage: 
                TLS Web Client Authentication
            X509v3 Key Usage: 
                Digital Signature
    Signature Algorithm: sha256WithRSAEncryption
         07:c9:10:64:42:7f:ed:1d:33:66:c5:19:ee:13:dc:11:8a:f4:
         12:8d:f4:8b:4b:6a:c3:52:f0:83:e8:83:20:b8:35:40:3c:13:
         10:19:74:f2:4b:4b:2b:f6:a3:ae:d2:7d:48:44:3e:3c:19:03:
         09:d8:8c:a1:2b:e3:17:70:8f:b7:2f:17:cb:72:ae:64:c1:96:
         ee:8c:03:75:d8:61:08:df:90:9c:5e:b0:e7:95:c4:35:52:75:
         6c:28:68:35:ba:c1:b5:a5:cc:28:28:84:36:4f:c5:5a:66:23:
         15:e3:cb:d5:dd:14:91:7b:3d:37:0d:7d:08:64:cf:64:76:4a:
         2c:48:89:c9:6a:a7:69:7c:29:a3:ab:b2:d3:26:40:02:bc:ce:
         f1:d6:bb:65:60:ab:73:20:07:7d:49:96:df:ac:73:fe:ef:03:
         8f:cd:f4:58:77:c9:2f:f5:3f:0d:b6:ed:e1:d2:cc:9d:53:ab:
         cc:09:d9:be:fd:79:e7:85:a3:01:f5:6d:a6:0a:d7:a2:8b:9c:
         c9:90:37:c1:48:e1:09:4a:6b:fb:d4:e1:41:ec:22:1f:59:d6:
         38:17:97:49:f8:20:31:da:e3:70:b7:eb:b0:bb:ec:b8:5a:6e:
         0c:76:1c:82:cc:95:3e:e9:05:00:25:f4:b6:5f:9d:55:a3:fe:
         0d:2c:e9:da
-----BEGIN CERTIFICATE-----
MIIDVjCCAj6gAwIBAgIRAII7zOphX5XQ35MtWzN1MucwDQYJKoZIhvcNAQELBQAw
FjEUMBIGA1UEAwwLRWFzeS1SU0EgQ0EwHhcNMjYwNDI0MTgwMDE4WhcNMjgwNzI3
MTgwMDE4WjAdMRswGQYDVQQDDBJjbGllbnQxLmRvbWFpbi50bGQwggEiMA0GCSqG
SIb3DQEBAQUAA4IBDwAwggEKAoIBAQCzVYL2n36Ea5Uepw3ndqRcY60cFfvDMF5m
cIcdMp8Vk9ACxSFzqtH1sxLfNGKq1BikvYdeLCyTi4Yrdm8z7ytnm2A/3ft0HA9d
qQsP9XhQj6upSf9Nf+DV6SWmdaBQmajzfsa6xNTbOE1uBalfN6AYnCI9xPpqBt9V
0yFbsfe4rwaOYeCNTDJZkFWn51hagnQvpcoMtS9d1ZWOX0VZS76va8wYWearJWhC
Kl1VfYJcgPjXteZK6RGMMAz9ZqaYcfSe8qZqjpLi3D9k2ulfdPml12H6UW0Lg/aZ
1lBnK9PrzQGEdshlze8e9sA/lpSd1PpjB+w5JGE7eQH4A+rNp3SjAgMBAAGjgZcw
gZQwCQYDVR0TBAIwADAdBgNVHQ4EFgQUTuyc9vgBORL/0MPcE58wwWUiBf4wRgYD
VR0jBD8wPYAUJuFrVFMp4db2tnszT/UGTJF4M6ehGqQYMBYxFDASBgNVBAMMC0Vh
c3ktUlNBIENBggkAl42s3GmHuHMwEwYDVR0lBAwwCgYIKwYBBQUHAwIwCwYDVR0P
BAQDAgeAMA0GCSqGSIb3DQEBCwUAA4IBAQAHyRBkQn/tHTNmxRnuE9wRivQSjfSL
S2rDUvCD6IMguDVAPBMQGXTyS0sr9qOu0n1IRD48GQMJ2IyhK+MXcI+3LxfLcq5k
wZbujAN12GEI35CcXrDnlcQ1UnVsKGg1usG1pcwoKIQ2T8VaZiMV48vV3RSRez03
DX0IZM9kdkosSInJaqdpfCmjq7LTJkACvM7x1rtlYKtzIAd9SZbfrHP+7wOPzfRY
d8kv9T8Ntu3h0sydU6vMCdm+/XnnhaMB9W2mCteii5zJkDfBSOEJSmv71OFB7CIf
WdY4F5dJ+CAx2uNwt+uwu+y4Wm4MdhyCzJU+6QUAJfS2X51Vo/4NLOna
-----END CERTIFICATE-----
